target datalayout = "e-m:e-p270:32:32-p271:32:32-p272:64:64-i64:64-i128:128-f80:128-n8:16:32:64-S128"
target triple = "x86_64-pc-linux-gnu"

%struct.archive_write = type { %struct.archive, i32, i64, i64, ptr, i64, ptr, ptr, ptr, ptr, ptr, i32, i32, ptr, ptr, ptr, ptr, ptr, ptr, ptr, ptr, ptr, ptr, ptr, ptr, ptr, ptr }
%struct.archive = type { i32, i32, ptr, i32, ptr, i32, i32, ptr, %struct.archive_string, ptr, i32, i32, ptr, ptr, i64, i64, i64, i8, i64 }
%struct.archive_string = type { ptr, i64, i64 }
%struct.archive_write_filter = type { i64, ptr, ptr, ptr, ptr, ptr, ptr, ptr, ptr, ptr, ptr, i32, i32, i32, i32 }

; Function Attrs: nounwind uwtable
define dso_local i32 @__archive_write_filter(ptr noundef %0, ptr noundef %1, i64 noundef %2) #0 {
  %4 = alloca i32, align 4
  %5 = alloca ptr, align 8
  %6 = alloca ptr, align 8
  %7 = alloca i64, align 8
  %8 = alloca i32, align 4
  %9 = alloca i32, align 4
  store ptr %0, ptr %5, align 8, !tbaa !33
  store ptr %1, ptr %6, align 8, !tbaa !40
  store i64 %2, ptr %7, align 8, !tbaa !29
  call void @llvm.lifetime.start.p0(i64 4, ptr %8) #9
  %10 = load ptr, ptr %5, align 8, !tbaa !33
  %11 = getelementptr inbounds nuw %struct.archive_write_filter, ptr %10, i32 0, i32 14
  %12 = load i32, ptr %11, align 4, !tbaa !36
  %13 = icmp ne i32 %12, 2
  br i1 %13, label %14, label %15

14:                                               ; preds = %3
  store i32 -30, ptr %4, align 4
  store i32 1, ptr %9, align 4
  br label %39

15:                                               ; preds = %3
  %16 = load i64, ptr %7, align 8, !tbaa !29
  %17 = icmp eq i64 %16, 0
  br i1 %17, label %18, label %19

18:                                               ; preds = %15
  store i32 0, ptr %4, align 4
  store i32 1, ptr %9, align 4
  br label %39

19:                                               ; preds = %15
  %20 = load ptr, ptr %5, align 8, !tbaa !33
  %21 = getelementptr inbounds nuw %struct.archive_write_filter, ptr %20, i32 0, i32 5
  %22 = load ptr, ptr %21, align 8, !tbaa !41
  %23 = icmp eq ptr %22, null
  br i1 %23, label %24, label %25

24:                                               ; preds = %19
  store i32 -30, ptr %4, align 4
  store i32 1, ptr %9, align 4
  br label %39

25:                                               ; preds = %19
  %26 = load ptr, ptr %5, align 8, !tbaa !33
  %27 = getelementptr inbounds nuw %struct.archive_write_filter, ptr %26, i32 0, i32 5
  %28 = load ptr, ptr %27, align 8, !tbaa !41
  %29 = load ptr, ptr %5, align 8, !tbaa !33
  %30 = load ptr, ptr %6, align 8, !tbaa !40
  %31 = load i64, ptr %7, align 8, !tbaa !29
  %32 = call i32 %28(ptr noundef %29, ptr noundef %30, i64 noundef %31)
  store i32 %32, ptr %8, align 4, !tbaa !28
  %33 = load i64, ptr %7, align 8, !tbaa !29
  %34 = load ptr, ptr %5, align 8, !tbaa !33
  %35 = getelementptr inbounds nuw %struct.archive_write_filter, ptr %34, i32 0, i32 0
  %36 = load i64, ptr %35, align 8, !tbaa !42
  %37 = add i64 %36, %33
  store i64 %37, ptr %35, align 8, !tbaa !42
  %38 = load i32, ptr %8, align 4, !tbaa !28
  store i32 %38, ptr %4, align 4
  store i32 1, ptr %9, align 4
  br label %39

39:                                               ; preds = %25, %24, %18, %14
  call void @llvm.lifetime.end.p0(i64 4, ptr %8) #9
  %40 = load i32, ptr %4, align 4
  ret i32 %40
}

; Function Attrs: nounwind uwtable
define dso_local i32 @__archive_write_output(ptr noundef %0, ptr noundef %1, i64 noundef %2) #0 {
  %4 = alloca ptr, align 8
  %5 = alloca ptr, align 8
  %6 = alloca i64, align 8
  store ptr %0, ptr %4, align 8, !tbaa !4
  store ptr %1, ptr %5, align 8, !tbaa !40
  store i64 %2, ptr %6, align 8, !tbaa !29
  %7 = load ptr, ptr %4, align 8, !tbaa !4
  %8 = getelementptr inbounds nuw %struct.archive_write, ptr %7, i32 0, i32 13
  %9 = load ptr, ptr %8, align 8, !tbaa !37
  %10 = load ptr, ptr %5, align 8, !tbaa !40
  %11 = load i64, ptr %6, align 8, !tbaa !29
  %12 = call i32 @__archive_write_filter(ptr noundef %9, ptr noundef %10, i64 noundef %11)
  ret i32 %12
}