; Function Attrs: nounwind uwtable
define dso_local i32 @__archive_write_output(ptr noundef readonly captures(none) %0, ptr noundef %1, i64 noundef %2) local_unnamed_addr #3 {
  %4 = getelementptr inbounds nuw i8, ptr %0, i64 232
  %5 = load ptr, ptr %4, align 8, !tbaa !30
  %6 = getelementptr inbounds nuw i8, ptr %5, i64 100
  %7 = load i32, ptr %6, align 4, !tbaa !29
  %.not.i = icmp eq i32 %7, 2
  br i1 %.not.i, label %8, label %__archive_write_filter.exit

8:                                                ; preds = %3
  %9 = icmp eq i64 %2, 0
  br i1 %9, label %__archive_write_filter.exit, label %10

10:                                               ; preds = %8
  %11 = getelementptr inbounds nuw i8, ptr %5, i64 40
  %12 = load ptr, ptr %11, align 8, !tbaa !33
  %13 = icmp eq ptr %12, null
  br i1 %13, label %__archive_write_filter.exit, label %14

14:                                               ; preds = %10
  %15 = tail call i32 %12(ptr noundef nonnull %5, ptr noundef %1, i64 noundef %2) #13
  %16 = load i64, ptr %5, align 8, !tbaa !34
  %17 = add i64 %16, %2
  store i64 %17, ptr %5, align 8, !tbaa !34
  br label %__archive_write_filter.exit

__archive_write_filter.exit:                      ; preds = %3, %8, %10, %14
  %.0.i = phi i32 [ %15, %14 ], [ -30, %3 ], [ 0, %8 ], [ -30, %10 ]
  ret i32 %.0.i
}